
lm35.elf:     file format elf32-avr

Sections:
Idx Name          Size      VMA       LMA       File off  Algn
  0 .text         000002fc  00000000  00000000  00000054  2**1
                  CONTENTS, ALLOC, LOAD, READONLY, CODE
  1 .data         00000000  00800060  00800060  00000350  2**0
                  CONTENTS, ALLOC, LOAD, DATA
  2 .comment      00000030  00000000  00000000  00000350  2**0
                  CONTENTS, READONLY
  3 .note.gnu.avr.deviceinfo 0000003c  00000000  00000000  00000380  2**2
                  CONTENTS, READONLY
  4 .debug_aranges 00000020  00000000  00000000  000003bc  2**0
                  CONTENTS, READONLY, DEBUGGING
  5 .debug_info   0000059a  00000000  00000000  000003dc  2**0
                  CONTENTS, READONLY, DEBUGGING
  6 .debug_abbrev 00000511  00000000  00000000  00000976  2**0
                  CONTENTS, READONLY, DEBUGGING
  7 .debug_line   000001f6  00000000  00000000  00000e87  2**0
                  CONTENTS, READONLY, DEBUGGING
  8 .debug_frame  00000024  00000000  00000000  00001080  2**2
                  CONTENTS, READONLY, DEBUGGING
  9 .debug_str    000002e2  00000000  00000000  000010a4  2**0
                  CONTENTS, READONLY, DEBUGGING
 10 .debug_loc    00000021  00000000  00000000  00001386  2**0
                  CONTENTS, READONLY, DEBUGGING
 11 .debug_ranges 00000010  00000000  00000000  000013a7  2**0
                  CONTENTS, READONLY, DEBUGGING

Disassembly of section .text:

00000000 <__vectors>:
   0:	0c 94 2a 00 	jmp	0x54	; 0x54 <__ctors_end>
   4:	0c 94 34 00 	jmp	0x68	; 0x68 <__bad_interrupt>
   8:	0c 94 34 00 	jmp	0x68	; 0x68 <__bad_interrupt>
   c:	0c 94 34 00 	jmp	0x68	; 0x68 <__bad_interrupt>
  10:	0c 94 34 00 	jmp	0x68	; 0x68 <__bad_interrupt>
  14:	0c 94 34 00 	jmp	0x68	; 0x68 <__bad_interrupt>
  18:	0c 94 34 00 	jmp	0x68	; 0x68 <__bad_interrupt>
  1c:	0c 94 34 00 	jmp	0x68	; 0x68 <__bad_interrupt>
  20:	0c 94 34 00 	jmp	0x68	; 0x68 <__bad_interrupt>
  24:	0c 94 34 00 	jmp	0x68	; 0x68 <__bad_interrupt>
  28:	0c 94 34 00 	jmp	0x68	; 0x68 <__bad_interrupt>
  2c:	0c 94 34 00 	jmp	0x68	; 0x68 <__bad_interrupt>
  30:	0c 94 34 00 	jmp	0x68	; 0x68 <__bad_interrupt>
  34:	0c 94 34 00 	jmp	0x68	; 0x68 <__bad_interrupt>
  38:	0c 94 34 00 	jmp	0x68	; 0x68 <__bad_interrupt>
  3c:	0c 94 34 00 	jmp	0x68	; 0x68 <__bad_interrupt>
  40:	0c 94 34 00 	jmp	0x68	; 0x68 <__bad_interrupt>
  44:	0c 94 34 00 	jmp	0x68	; 0x68 <__bad_interrupt>
  48:	0c 94 34 00 	jmp	0x68	; 0x68 <__bad_interrupt>
  4c:	0c 94 34 00 	jmp	0x68	; 0x68 <__bad_interrupt>
  50:	0c 94 34 00 	jmp	0x68	; 0x68 <__bad_interrupt>

00000054 <__ctors_end>:
  54:	11 24       	eor	r1, r1
  56:	1f be       	out	0x3f, r1	; 63
  58:	cf e5       	ldi	r28, 0x5F	; 95
  5a:	d8 e0       	ldi	r29, 0x08	; 8
  5c:	de bf       	out	0x3e, r29	; 62
  5e:	cd bf       	out	0x3d, r28	; 61
  60:	0e 94 36 00 	call	0x6c	; 0x6c <main>
  64:	0c 94 7c 01 	jmp	0x2f8	; 0x2f8 <_exit>

00000068 <__bad_interrupt>:
  68:	0c 94 00 00 	jmp	0	; 0x0 <__vectors>

0000006c <main>:


int main(void)
{
    /* Replace with your application code */
	DDRB = 0xFF;
  6c:	8f ef       	ldi	r24, 0xFF	; 255
  6e:	87 bb       	out	0x17, r24	; 23
	/*
	Vref = 2.56 -> 11
	ADLAR = right adjusted -> 0
	Source = ADC0 -> 00000
	*/
	ADMUX = 0b11000000;
  70:	80 ec       	ldi	r24, 0xC0	; 192
  72:	87 b9       	out	0x07, r24	; 7
	
	/*
	ADEN -> 1
	Prescaler 2 factor -> 000
	*/
	ADCSRA = 0b10000000;
  74:	80 e8       	ldi	r24, 0x80	; 128
  76:	86 b9       	out	0x06, r24	; 6
		while(ADCSRA & (1 << ADSC)) {;}
		
		// 2.56 * 1000 / (1024 * 10) = 0.25 = 1/4
		float temp = ADC / 4.0;
		
		if(temp > 20) PORTB = 0xFF;
  78:	cf ef       	ldi	r28, 0xFF	; 255
	ADCSRA = 0b10000000;
	
	
    while (1) 
    {
		ADCSRA |= (1 << ADSC);
  7a:	36 9a       	sbi	0x06, 6	; 6
		while(ADCSRA & (1 << ADSC)) {;}
  7c:	36 99       	sbic	0x06, 6	; 6
  7e:	fe cf       	rjmp	.-4      	; 0x7c <main+0x10>
		
		// 2.56 * 1000 / (1024 * 10) = 0.25 = 1/4
		float temp = ADC / 4.0;
  80:	64 b1       	in	r22, 0x04	; 4
  82:	75 b1       	in	r23, 0x05	; 5
		
		if(temp > 20) PORTB = 0xFF;
  84:	80 e0       	ldi	r24, 0x00	; 0
  86:	90 e0       	ldi	r25, 0x00	; 0
  88:	0e 94 58 00 	call	0xb0	; 0xb0 <__floatunsisf>
  8c:	20 e0       	ldi	r18, 0x00	; 0
  8e:	30 e0       	ldi	r19, 0x00	; 0
  90:	40 e8       	ldi	r20, 0x80	; 128
  92:	5e e3       	ldi	r21, 0x3E	; 62
  94:	0e 94 9a 00 	call	0x134	; 0x134 <__mulsf3>
  98:	20 e0       	ldi	r18, 0x00	; 0
  9a:	30 e0       	ldi	r19, 0x00	; 0
  9c:	40 ea       	ldi	r20, 0xA0	; 160
  9e:	51 e4       	ldi	r21, 0x41	; 65
  a0:	0e 94 95 00 	call	0x12a	; 0x12a <__gesf2>
  a4:	18 16       	cp	r1, r24
  a6:	14 f4       	brge	.+4      	; 0xac <main+0x40>
  a8:	c8 bb       	out	0x18, r28	; 24
  aa:	e7 cf       	rjmp	.-50     	; 0x7a <main+0xe>
		else PORTB = 0x00;
  ac:	18 ba       	out	0x18, r1	; 24
  ae:	e5 cf       	rjmp	.-54     	; 0x7a <main+0xe>

000000b0 <__floatunsisf>:
  b0:	e8 94       	clt
  b2:	09 c0       	rjmp	.+18     	; 0xc6 <__floatsisf+0x12>

000000b4 <__floatsisf>:
  b4:	97 fb       	bst	r25, 7
  b6:	3e f4       	brtc	.+14     	; 0xc6 <__floatsisf+0x12>
  b8:	90 95       	com	r25
  ba:	80 95       	com	r24
  bc:	70 95       	com	r23
  be:	61 95       	neg	r22
  c0:	7f 4f       	sbci	r23, 0xFF	; 255
  c2:	8f 4f       	sbci	r24, 0xFF	; 255
  c4:	9f 4f       	sbci	r25, 0xFF	; 255
  c6:	99 23       	and	r25, r25
  c8:	a9 f0       	breq	.+42     	; 0xf4 <__floatsisf+0x40>
  ca:	f9 2f       	mov	r31, r25
  cc:	96 e9       	ldi	r25, 0x96	; 150
  ce:	bb 27       	eor	r27, r27
  d0:	93 95       	inc	r25
  d2:	f6 95       	lsr	r31
  d4:	87 95       	ror	r24
  d6:	77 95       	ror	r23
  d8:	67 95       	ror	r22
  da:	b7 95       	ror	r27
  dc:	f1 11       	cpse	r31, r1
  de:	f8 cf       	rjmp	.-16     	; 0xd0 <__floatsisf+0x1c>
  e0:	fa f4       	brpl	.+62     	; 0x120 <__floatsisf+0x6c>
  e2:	bb 0f       	add	r27, r27
  e4:	11 f4       	brne	.+4      	; 0xea <__floatsisf+0x36>
  e6:	60 ff       	sbrs	r22, 0
  e8:	1b c0       	rjmp	.+54     	; 0x120 <__floatsisf+0x6c>
  ea:	6f 5f       	subi	r22, 0xFF	; 255
  ec:	7f 4f       	sbci	r23, 0xFF	; 255
  ee:	8f 4f       	sbci	r24, 0xFF	; 255
  f0:	9f 4f       	sbci	r25, 0xFF	; 255
  f2:	16 c0       	rjmp	.+44     	; 0x120 <__floatsisf+0x6c>
  f4:	88 23       	and	r24, r24
  f6:	11 f0       	breq	.+4      	; 0xfc <__floatsisf+0x48>
  f8:	96 e9       	ldi	r25, 0x96	; 150
  fa:	11 c0       	rjmp	.+34     	; 0x11e <__floatsisf+0x6a>
  fc:	77 23       	and	r23, r23
  fe:	21 f0       	breq	.+8      	; 0x108 <__floatsisf+0x54>
 100:	9e e8       	ldi	r25, 0x8E	; 142
 102:	87 2f       	mov	r24, r23
 104:	76 2f       	mov	r23, r22
 106:	05 c0       	rjmp	.+10     	; 0x112 <__floatsisf+0x5e>
 108:	66 23       	and	r22, r22
 10a:	71 f0       	breq	.+28     	; 0x128 <__floatsisf+0x74>
 10c:	96 e8       	ldi	r25, 0x86	; 134
 10e:	86 2f       	mov	r24, r22
 110:	70 e0       	ldi	r23, 0x00	; 0
 112:	60 e0       	ldi	r22, 0x00	; 0
 114:	2a f0       	brmi	.+10     	; 0x120 <__floatsisf+0x6c>
 116:	9a 95       	dec	r25
 118:	66 0f       	add	r22, r22
 11a:	77 1f       	adc	r23, r23
 11c:	88 1f       	adc	r24, r24
 11e:	da f7       	brpl	.-10     	; 0x116 <__floatsisf+0x62>
 120:	88 0f       	add	r24, r24
 122:	96 95       	lsr	r25
 124:	87 95       	ror	r24
 126:	97 f9       	bld	r25, 7
 128:	08 95       	ret

0000012a <__gesf2>:
 12a:	0e 94 07 01 	call	0x20e	; 0x20e <__fp_cmp>
 12e:	08 f4       	brcc	.+2      	; 0x132 <__gesf2+0x8>
 130:	8f ef       	ldi	r24, 0xFF	; 255
 132:	08 95       	ret

00000134 <__mulsf3>:
 134:	0e 94 ad 00 	call	0x15a	; 0x15a <__mulsf3x>
 138:	0c 94 42 01 	jmp	0x284	; 0x284 <__fp_round>
 13c:	0e 94 34 01 	call	0x268	; 0x268 <__fp_pscA>
 140:	38 f0       	brcs	.+14     	; 0x150 <__mulsf3+0x1c>
 142:	0e 94 3b 01 	call	0x276	; 0x276 <__fp_pscB>
 146:	20 f0       	brcs	.+8      	; 0x150 <__mulsf3+0x1c>
 148:	95 23       	and	r25, r21
 14a:	11 f0       	breq	.+4      	; 0x150 <__mulsf3+0x1c>
 14c:	0c 94 2b 01 	jmp	0x256	; 0x256 <__fp_inf>
 150:	0c 94 31 01 	jmp	0x262	; 0x262 <__fp_nan>
 154:	11 24       	eor	r1, r1
 156:	0c 94 76 01 	jmp	0x2ec	; 0x2ec <__fp_szero>

0000015a <__mulsf3x>:
 15a:	0e 94 53 01 	call	0x2a6	; 0x2a6 <__fp_split3>
 15e:	70 f3       	brcs	.-36     	; 0x13c <__mulsf3+0x8>

00000160 <__mulsf3_pse>:
 160:	95 9f       	mul	r25, r21
 162:	c1 f3       	breq	.-16     	; 0x154 <__mulsf3+0x20>
 164:	95 0f       	add	r25, r21
 166:	50 e0       	ldi	r21, 0x00	; 0
 168:	55 1f       	adc	r21, r21
 16a:	62 9f       	mul	r22, r18
 16c:	f0 01       	movw	r30, r0
 16e:	72 9f       	mul	r23, r18
 170:	bb 27       	eor	r27, r27
 172:	f0 0d       	add	r31, r0
 174:	b1 1d       	adc	r27, r1
 176:	63 9f       	mul	r22, r19
 178:	aa 27       	eor	r26, r26
 17a:	f0 0d       	add	r31, r0
 17c:	b1 1d       	adc	r27, r1
 17e:	aa 1f       	adc	r26, r26
 180:	64 9f       	mul	r22, r20
 182:	66 27       	eor	r22, r22
 184:	b0 0d       	add	r27, r0
 186:	a1 1d       	adc	r26, r1
 188:	66 1f       	adc	r22, r22
 18a:	82 9f       	mul	r24, r18
 18c:	22 27       	eor	r18, r18
 18e:	b0 0d       	add	r27, r0
 190:	a1 1d       	adc	r26, r1
 192:	62 1f       	adc	r22, r18
 194:	73 9f       	mul	r23, r19
 196:	b0 0d       	add	r27, r0
 198:	a1 1d       	adc	r26, r1
 19a:	62 1f       	adc	r22, r18
 19c:	83 9f       	mul	r24, r19
 19e:	a0 0d       	add	r26, r0
 1a0:	61 1d       	adc	r22, r1
 1a2:	22 1f       	adc	r18, r18
 1a4:	74 9f       	mul	r23, r20
 1a6:	33 27       	eor	r19, r19
 1a8:	a0 0d       	add	r26, r0
 1aa:	61 1d       	adc	r22, r1
 1ac:	23 1f       	adc	r18, r19
 1ae:	84 9f       	mul	r24, r20
 1b0:	60 0d       	add	r22, r0
 1b2:	21 1d       	adc	r18, r1
 1b4:	82 2f       	mov	r24, r18
 1b6:	76 2f       	mov	r23, r22
 1b8:	6a 2f       	mov	r22, r26
 1ba:	11 24       	eor	r1, r1
 1bc:	9f 57       	subi	r25, 0x7F	; 127
 1be:	50 40       	sbci	r21, 0x00	; 0
 1c0:	9a f0       	brmi	.+38     	; 0x1e8 <__mulsf3_pse+0x88>
 1c2:	f1 f0       	breq	.+60     	; 0x200 <__mulsf3_pse+0xa0>
 1c4:	88 23       	and	r24, r24
 1c6:	4a f0       	brmi	.+18     	; 0x1da <__mulsf3_pse+0x7a>
 1c8:	ee 0f       	add	r30, r30
 1ca:	ff 1f       	adc	r31, r31
 1cc:	bb 1f       	adc	r27, r27
 1ce:	66 1f       	adc	r22, r22
 1d0:	77 1f       	adc	r23, r23
 1d2:	88 1f       	adc	r24, r24
 1d4:	91 50       	subi	r25, 0x01	; 1
 1d6:	50 40       	sbci	r21, 0x00	; 0
 1d8:	a9 f7       	brne	.-22     	; 0x1c4 <__mulsf3_pse+0x64>
 1da:	9e 3f       	cpi	r25, 0xFE	; 254
 1dc:	51 05       	cpc	r21, r1
 1de:	80 f0       	brcs	.+32     	; 0x200 <__mulsf3_pse+0xa0>
 1e0:	0c 94 2b 01 	jmp	0x256	; 0x256 <__fp_inf>
 1e4:	0c 94 76 01 	jmp	0x2ec	; 0x2ec <__fp_szero>
 1e8:	5f 3f       	cpi	r21, 0xFF	; 255
 1ea:	e4 f3       	brlt	.-8      	; 0x1e4 <__mulsf3_pse+0x84>
 1ec:	98 3e       	cpi	r25, 0xE8	; 232
 1ee:	d4 f3       	brlt	.-12     	; 0x1e4 <__mulsf3_pse+0x84>
 1f0:	86 95       	lsr	r24
 1f2:	77 95       	ror	r23
 1f4:	67 95       	ror	r22
 1f6:	b7 95       	ror	r27
 1f8:	f7 95       	ror	r31
 1fa:	e7 95       	ror	r30
 1fc:	9f 5f       	subi	r25, 0xFF	; 255
 1fe:	c1 f7       	brne	.-16     	; 0x1f0 <__mulsf3_pse+0x90>
 200:	fe 2b       	or	r31, r30
 202:	88 0f       	add	r24, r24
 204:	91 1d       	adc	r25, r1
 206:	96 95       	lsr	r25
 208:	87 95       	ror	r24
 20a:	97 f9       	bld	r25, 7
 20c:	08 95       	ret

0000020e <__fp_cmp>:
 20e:	99 0f       	add	r25, r25
 210:	00 08       	sbc	r0, r0
 212:	55 0f       	add	r21, r21
 214:	aa 0b       	sbc	r26, r26
 216:	e0 e8       	ldi	r30, 0x80	; 128
 218:	fe ef       	ldi	r31, 0xFE	; 254
 21a:	16 16       	cp	r1, r22
 21c:	17 06       	cpc	r1, r23
 21e:	e8 07       	cpc	r30, r24
 220:	f9 07       	cpc	r31, r25
 222:	c0 f0       	brcs	.+48     	; 0x254 <__fp_cmp+0x46>
 224:	12 16       	cp	r1, r18
 226:	13 06       	cpc	r1, r19
 228:	e4 07       	cpc	r30, r20
 22a:	f5 07       	cpc	r31, r21
 22c:	98 f0       	brcs	.+38     	; 0x254 <__fp_cmp+0x46>
 22e:	62 1b       	sub	r22, r18
 230:	73 0b       	sbc	r23, r19
 232:	84 0b       	sbc	r24, r20
 234:	95 0b       	sbc	r25, r21
 236:	39 f4       	brne	.+14     	; 0x246 <__fp_cmp+0x38>
 238:	0a 26       	eor	r0, r26
 23a:	61 f0       	breq	.+24     	; 0x254 <__fp_cmp+0x46>
 23c:	23 2b       	or	r18, r19
 23e:	24 2b       	or	r18, r20
 240:	25 2b       	or	r18, r21
 242:	21 f4       	brne	.+8      	; 0x24c <__fp_cmp+0x3e>
 244:	08 95       	ret
 246:	0a 26       	eor	r0, r26
 248:	09 f4       	brne	.+2      	; 0x24c <__fp_cmp+0x3e>
 24a:	a1 40       	sbci	r26, 0x01	; 1
 24c:	a6 95       	lsr	r26
 24e:	8f ef       	ldi	r24, 0xFF	; 255
 250:	81 1d       	adc	r24, r1
 252:	81 1d       	adc	r24, r1
 254:	08 95       	ret

00000256 <__fp_inf>:
 256:	97 f9       	bld	r25, 7
 258:	9f 67       	ori	r25, 0x7F	; 127
 25a:	80 e8       	ldi	r24, 0x80	; 128
 25c:	70 e0       	ldi	r23, 0x00	; 0
 25e:	60 e0       	ldi	r22, 0x00	; 0
 260:	08 95       	ret

00000262 <__fp_nan>:
 262:	9f ef       	ldi	r25, 0xFF	; 255
 264:	80 ec       	ldi	r24, 0xC0	; 192
 266:	08 95       	ret

00000268 <__fp_pscA>:
 268:	00 24       	eor	r0, r0
 26a:	0a 94       	dec	r0
 26c:	16 16       	cp	r1, r22
 26e:	17 06       	cpc	r1, r23
 270:	18 06       	cpc	r1, r24
 272:	09 06       	cpc	r0, r25
 274:	08 95       	ret

00000276 <__fp_pscB>:
 276:	00 24       	eor	r0, r0
 278:	0a 94       	dec	r0
 27a:	12 16       	cp	r1, r18
 27c:	13 06       	cpc	r1, r19
 27e:	14 06       	cpc	r1, r20
 280:	05 06       	cpc	r0, r21
 282:	08 95       	ret

00000284 <__fp_round>:
 284:	09 2e       	mov	r0, r25
 286:	03 94       	inc	r0
 288:	00 0c       	add	r0, r0
 28a:	11 f4       	brne	.+4      	; 0x290 <__fp_round+0xc>
 28c:	88 23       	and	r24, r24
 28e:	52 f0       	brmi	.+20     	; 0x2a4 <__fp_round+0x20>
 290:	bb 0f       	add	r27, r27
 292:	40 f4       	brcc	.+16     	; 0x2a4 <__fp_round+0x20>
 294:	bf 2b       	or	r27, r31
 296:	11 f4       	brne	.+4      	; 0x29c <__fp_round+0x18>
 298:	60 ff       	sbrs	r22, 0
 29a:	04 c0       	rjmp	.+8      	; 0x2a4 <__fp_round+0x20>
 29c:	6f 5f       	subi	r22, 0xFF	; 255
 29e:	7f 4f       	sbci	r23, 0xFF	; 255
 2a0:	8f 4f       	sbci	r24, 0xFF	; 255
 2a2:	9f 4f       	sbci	r25, 0xFF	; 255
 2a4:	08 95       	ret

000002a6 <__fp_split3>:
 2a6:	57 fd       	sbrc	r21, 7
 2a8:	90 58       	subi	r25, 0x80	; 128
 2aa:	44 0f       	add	r20, r20
 2ac:	55 1f       	adc	r21, r21
 2ae:	59 f0       	breq	.+22     	; 0x2c6 <__fp_splitA+0x10>
 2b0:	5f 3f       	cpi	r21, 0xFF	; 255
 2b2:	71 f0       	breq	.+28     	; 0x2d0 <__fp_splitA+0x1a>
 2b4:	47 95       	ror	r20

000002b6 <__fp_splitA>:
 2b6:	88 0f       	add	r24, r24
 2b8:	97 fb       	bst	r25, 7
 2ba:	99 1f       	adc	r25, r25
 2bc:	61 f0       	breq	.+24     	; 0x2d6 <__fp_splitA+0x20>
 2be:	9f 3f       	cpi	r25, 0xFF	; 255
 2c0:	79 f0       	breq	.+30     	; 0x2e0 <__fp_splitA+0x2a>
 2c2:	87 95       	ror	r24
 2c4:	08 95       	ret
 2c6:	12 16       	cp	r1, r18
 2c8:	13 06       	cpc	r1, r19
 2ca:	14 06       	cpc	r1, r20
 2cc:	55 1f       	adc	r21, r21
 2ce:	f2 cf       	rjmp	.-28     	; 0x2b4 <__fp_split3+0xe>
 2d0:	46 95       	lsr	r20
 2d2:	f1 df       	rcall	.-30     	; 0x2b6 <__fp_splitA>
 2d4:	08 c0       	rjmp	.+16     	; 0x2e6 <__fp_splitA+0x30>
 2d6:	16 16       	cp	r1, r22
 2d8:	17 06       	cpc	r1, r23
 2da:	18 06       	cpc	r1, r24
 2dc:	99 1f       	adc	r25, r25
 2de:	f1 cf       	rjmp	.-30     	; 0x2c2 <__fp_splitA+0xc>
 2e0:	86 95       	lsr	r24
 2e2:	71 05       	cpc	r23, r1
 2e4:	61 05       	cpc	r22, r1
 2e6:	08 94       	sec
 2e8:	08 95       	ret

000002ea <__fp_zero>:
 2ea:	e8 94       	clt

000002ec <__fp_szero>:
 2ec:	bb 27       	eor	r27, r27
 2ee:	66 27       	eor	r22, r22
 2f0:	77 27       	eor	r23, r23
 2f2:	cb 01       	movw	r24, r22
 2f4:	97 f9       	bld	r25, 7
 2f6:	08 95       	ret

000002f8 <_exit>:
 2f8:	f8 94       	cli

000002fa <__stop_program>:
 2fa:	ff cf       	rjmp	.-2      	; 0x2fa <__stop_program>
